target datalayout = "e-m:e-p270:32:32-p271:32:32-p272:64:64-i64:64-i128:128-f80:128-n8:16:32:64-S128"
target triple = "x86_64-pc-linux-gnu"

%struct.PaUtilHostApiRepresentation = type { %struct.PaUtilPrivatePaFrontHostApiInfo, %struct.PaHostApiInfo, ptr, ptr, ptr, ptr }
%struct.PaUtilPrivatePaFrontHostApiInfo = type { i64 }
%struct.PaHostApiInfo = type { i32, i32, ptr, i32, i32, i32 }
%struct.PaStreamParameters = type { i32, i32, i64, double, ptr }
%struct.PaAlsaDeviceInfo = type { %struct.PaDeviceInfo, ptr, i32, i32, i32 }
%struct.PaDeviceInfo = type { i32, ptr, i32, i32, i32, double, double, double, double, double }
%struct.PaAlsaStreamInfo = type { i64, i32, i64, ptr }

@paUtilErr_ = internal global i32 0, align 4
@.str.89 = private unnamed_addr constant [214 x i8] c"Expression 'parameters->hostApiSpecificStreamInfo == NULL' failed in 'generated/home/dtcxzyw/WorkSpace/Projects/compilers/llvm-opt-benchmark/bench/portaudio/portaudio/src/hostapi/alsa/pa_linux_alsa.c', line: 1518\0A\00", align 1
@.str.90 = private unnamed_addr constant [230 x i8] c"Expression 'parameters->device == paUseHostApiSpecificDeviceSpecification' failed in 'generated/home/dtcxzyw/WorkSpace/Projects/compilers/llvm-opt-benchmark/bench/portaudio/portaudio/src/hostapi/alsa/pa_linux_alsa.c', line: 1525\0A\00", align 1
@.str.92 = private unnamed_addr constant [201 x i8] c"Expression 'streamInfo->deviceString != NULL' failed in 'generated/home/dtcxzyw/WorkSpace/Projects/compilers/llvm-opt-benchmark/bench/portaudio/portaudio/src/hostapi/alsa/pa_linux_alsa.c', line: 1528\0A\00", align 1
@.str.93 = private unnamed_addr constant [205 x i8] c"Expression 'parameters->channelCount <= maxChans' failed in 'generated/home/dtcxzyw/WorkSpace/Projects/compilers/llvm-opt-benchmark/bench/portaudio/portaudio/src/hostapi/alsa/pa_linux_alsa.c', line: 1538\0A\00", align 1

; Function Attrs: nounwind uwtable
define internal ptr @GetDeviceInfo(ptr noundef %0, i32 noundef %1) #0 {
  %3 = alloca ptr, align 8
  %4 = alloca i32, align 4
  store ptr %0, ptr %3, align 8, !tbaa !24
  store i32 %1, ptr %4, align 4, !tbaa !8
  %5 = load ptr, ptr %3, align 8, !tbaa !24
  %6 = getelementptr inbounds nuw %struct.PaUtilHostApiRepresentation, ptr %5, i32 0, i32 2
  %7 = load ptr, ptr %6, align 8, !tbaa !88
  %8 = load i32, ptr %4, align 4, !tbaa !8
  %9 = sext i32 %8 to i64
  %10 = getelementptr inbounds ptr, ptr %7, i64 %9
  %11 = load ptr, ptr %10, align 8, !tbaa !136
  ret ptr %11
}

; Function Attrs: nounwind uwtable
define internal i32 @ValidateParameters(ptr noundef %0, ptr noundef %1, i32 noundef %2) #0 {
  %4 = alloca i32, align 4
  %5 = alloca ptr, align 8
  %6 = alloca ptr, align 8
  %7 = alloca i32, align 4
  %8 = alloca i32, align 4
  %9 = alloca i32, align 4
  %10 = alloca ptr, align 8
  %11 = alloca ptr, align 8
  %12 = alloca i32, align 4
  store ptr %0, ptr %5, align 8, !tbaa !33
  store ptr %1, ptr %6, align 8, !tbaa !24
  store i32 %2, ptr %7, align 4, !tbaa !8
  call void @llvm.lifetime.start.p0(i64 4, ptr %8) #17
  store i32 0, ptr %8, align 4, !tbaa !8
  call void @llvm.lifetime.start.p0(i64 4, ptr %9) #17
  call void @llvm.lifetime.start.p0(i64 8, ptr %10) #17
  store ptr null, ptr %10, align 8, !tbaa !89
  %13 = load ptr, ptr %5, align 8, !tbaa !33
  %14 = getelementptr inbounds nuw %struct.PaStreamParameters, ptr %13, i32 0, i32 0
  %15 = load i32, ptr %14, align 8, !tbaa !159
  %16 = icmp ne i32 %15, -2
  br i1 %16, label %17, label %38

17:                                               ; preds = %3
  br label %18

18:                                               ; preds = %17
  %19 = load ptr, ptr %5, align 8, !tbaa !33
  %20 = getelementptr inbounds nuw %struct.PaStreamParameters, ptr %19, i32 0, i32 4
  %21 = load ptr, ptr %20, align 8, !tbaa !160
  %22 = icmp eq ptr %21, null
  %23 = zext i1 %22 to i32
  %24 = icmp eq i32 %23, 0
  %25 = zext i1 %24 to i32
  %26 = sext i32 %25 to i64
  %27 = call i64 @llvm.expect.i64(i64 %26, i64 0)
  %28 = icmp ne i64 %27, 0
  br i1 %28, label %29, label %30

29:                                               ; preds = %18
  call void (ptr, ...) @PaUtil_DebugPrint(ptr noundef @.str.89)
  store i32 -9993, ptr %8, align 4, !tbaa !8
  br label %127

30:                                               ; preds = %18
  br label %31

31:                                               ; preds = %30
  br label %32

32:                                               ; preds = %31
  %33 = load ptr, ptr %6, align 8, !tbaa !24
  %34 = load ptr, ptr %5, align 8, !tbaa !33
  %35 = getelementptr inbounds nuw %struct.PaStreamParameters, ptr %34, i32 0, i32 0
  %36 = load i32, ptr %35, align 8, !tbaa !159
  %37 = call ptr @GetDeviceInfo(ptr noundef %33, i32 noundef %36)
  store ptr %37, ptr %10, align 8, !tbaa !89
  br label %96

38:                                               ; preds = %3
  call void @llvm.lifetime.start.p0(i64 8, ptr %11) #17
  %39 = load ptr, ptr %5, align 8, !tbaa !33
  %40 = getelementptr inbounds nuw %struct.PaStreamParameters, ptr %39, i32 0, i32 4
  %41 = load ptr, ptr %40, align 8, !tbaa !160
  store ptr %41, ptr %11, align 8, !tbaa !115
  br label %42

42:                                               ; preds = %38
  %43 = load ptr, ptr %5, align 8, !tbaa !33
  %44 = getelementptr inbounds nuw %struct.PaStreamParameters, ptr %43, i32 0, i32 0
  %45 = load i32, ptr %44, align 8, !tbaa !159
  %46 = icmp eq i32 %45, -2
  %47 = zext i1 %46 to i32
  %48 = icmp eq i32 %47, 0
  %49 = zext i1 %48 to i32
  %50 = sext i32 %49 to i64
  %51 = call i64 @llvm.expect.i64(i64 %50, i64 0)
  %52 = icmp ne i64 %51, 0
  br i1 %52, label %53, label %54

53:                                               ; preds = %42
  call void (ptr, ...) @PaUtil_DebugPrint(ptr noundef @.str.90)
  store i32 -9996, ptr %8, align 4, !tbaa !8
  store i32 4, ptr %12, align 4
  br label %94

54:                                               ; preds = %42
  br label %55

55:                                               ; preds = %54
  br label %56

56:                                               ; preds = %55
  br label %57

57:                                               ; preds = %56
  %58 = load ptr, ptr %11, align 8, !tbaa !115
  %59 = getelementptr inbounds nuw %struct.PaAlsaStreamInfo, ptr %58, i32 0, i32 0
  %60 = load i64, ptr %59, align 8, !tbaa !117
  %61 = icmp eq i64 %60, 32
  br i1 %61, label %62, label %67

62:                                               ; preds = %57
  %63 = load ptr, ptr %11, align 8, !tbaa !115
  %64 = getelementptr inbounds nuw %struct.PaAlsaStreamInfo, ptr %63, i32 0, i32 2
  %65 = load i64, ptr %64, align 8, !tbaa !120
  %66 = icmp eq i64 %65, 1
  br label %67

67:                                               ; preds = %62, %57
  %68 = phi i1 [ false, %57 ], [ %66, %62 ]
  %69 = zext i1 %68 to i32
  %70 = icmp eq i32 %69, 0
  %71 = zext i1 %70 to i32
  %72 = sext i32 %71 to i64
  %73 = call i64 @llvm.expect.i64(i64 %72, i64 0)
  %74 = icmp ne i64 %73, 0
  br i1 %74, label %75, label %76

75:                                               ; preds = %67
  call void (ptr, ...) @PaUtil_DebugPrint(ptr noundef @.str.91)
  store i32 -9984, ptr %8, align 4, !tbaa !8
  store i32 4, ptr %12, align 4
  br label %94

76:                                               ; preds = %67
  br label %77

77:                                               ; preds = %76
  br label %78

78:                                               ; preds = %77
  br label %79

79:                                               ; preds = %78
  %80 = load ptr, ptr %11, align 8, !tbaa !115
  %81 = getelementptr inbounds nuw %struct.PaAlsaStreamInfo, ptr %80, i32 0, i32 3
  %82 = load ptr, ptr %81, align 8, !tbaa !121
  %83 = icmp ne ptr %82, null
  %84 = zext i1 %83 to i32
  %85 = icmp eq i32 %84, 0
  %86 = zext i1 %85 to i32
  %87 = sext i32 %86 to i64
  %88 = call i64 @llvm.expect.i64(i64 %87, i64 0)
  %89 = icmp ne i64 %88, 0
  br i1 %89, label %90, label %91

90:                                               ; preds = %79
  call void (ptr, ...) @PaUtil_DebugPrint(ptr noundef @.str.92)
  store i32 -9996, ptr %8, align 4, !tbaa !8
  store i32 4, ptr %12, align 4
  br label %94

91:                                               ; preds = %79
  br label %92

92:                                               ; preds = %91
  br label %93

93:                                               ; preds = %92
  store i32 0, ptr %4, align 4
  store i32 1, ptr %12, align 4
  br label %94

94:                                               ; preds = %90, %75, %53, %93
  call void @llvm.lifetime.end.p0(i64 8, ptr %11) #17
  %95 = load i32, ptr %12, align 4
  switch i32 %95, label %129 [
    i32 4, label %127
  ]

96:                                               ; preds = %32
  %97 = load i32, ptr %7, align 4, !tbaa !8
  %98 = icmp eq i32 0, %97
  br i1 %98, label %99, label %104

99:                                               ; preds = %96
  %100 = load ptr, ptr %10, align 8, !tbaa !89
  %101 = getelementptr inbounds nuw %struct.PaAlsaDeviceInfo, ptr %100, i32 0, i32 0
  %102 = getelementptr inbounds nuw %struct.PaDeviceInfo, ptr %101, i32 0, i32 3
  %103 = load i32, ptr %102, align 4, !tbaa !161
  br label %109

104:                                              ; preds = %96
  %105 = load ptr, ptr %10, align 8, !tbaa !89
  %106 = getelementptr inbounds nuw %struct.PaAlsaDeviceInfo, ptr %105, i32 0, i32 0
  %107 = getelementptr inbounds nuw %struct.PaDeviceInfo, ptr %106, i32 0, i32 4
  %108 = load i32, ptr %107, align 8, !tbaa !162
  br label %109

109:                                              ; preds = %104, %99
  %110 = phi i32 [ %103, %99 ], [ %108, %104 ]
  store i32 %110, ptr %9, align 4, !tbaa !8
  br label %111

111:                                              ; preds = %109
  %112 = load ptr, ptr %5, align 8, !tbaa !33
  %113 = getelementptr inbounds nuw %struct.PaStreamParameters, ptr %112, i32 0, i32 1
  %114 = load i32, ptr %113, align 4, !tbaa !40
  %115 = load i32, ptr %9, align 4, !tbaa !8
  %116 = icmp sle i32 %114, %115
  %117 = zext i1 %116 to i32
  %118 = icmp eq i32 %117, 0
  %119 = zext i1 %118 to i32
  %120 = sext i32 %119 to i64
  %121 = call i64 @llvm.expect.i64(i64 %120, i64 0)
  %122 = icmp ne i64 %121, 0
  br i1 %122, label %123, label %124

123:                                              ; preds = %111
  call void (ptr, ...) @PaUtil_DebugPrint(ptr noundef @.str.93)
  store i32 -9998, ptr %8, align 4, !tbaa !8
  br label %127

124:                                              ; preds = %111
  br label %125

125:                                              ; preds = %124
  br label %126

126:                                              ; preds = %125
  br label %127

127:                                              ; preds = %126, %94, %123, %29
  %128 = load i32, ptr %8, align 4, !tbaa !8
  store i32 %128, ptr %4, align 4
  store i32 1, ptr %12, align 4
  br label %129

129:                                              ; preds = %127, %94
  call void @llvm.lifetime.end.p0(i64 8, ptr %10) #17
  call void @llvm.lifetime.end.p0(i64 4, ptr %9) #17
  call void @llvm.lifetime.end.p0(i64 4, ptr %8) #17
  %130 = load i32, ptr %4, align 4
  ret i32 %130
}

; Function Attrs: nounwind uwtable
define internal i32 @IsFormatSupported(ptr noundef %0, ptr noundef %1, ptr noundef %2, double noundef %3) #0 {
  %5 = alloca i32, align 4
  %6 = alloca ptr, align 8
  %7 = alloca ptr, align 8
  %8 = alloca ptr, align 8
  %9 = alloca double, align 8
  %10 = alloca i32, align 4
  %11 = alloca i32, align 4
  %12 = alloca i64, align 8
  %13 = alloca i64, align 8
  %14 = alloca i32, align 4
  %15 = alloca i32, align 4
  store ptr %0, ptr %6, align 8, !tbaa !24
  store ptr %1, ptr %7, align 8, !tbaa !33
  store ptr %2, ptr %8, align 8, !tbaa !33
  store double %3, ptr %9, align 8, !tbaa !35
  call void @llvm.lifetime.start.p0(i64 4, ptr %10) #17
  store i32 0, ptr %10, align 4, !tbaa !8
  call void @llvm.lifetime.start.p0(i64 4, ptr %11) #17
  store i32 0, ptr %11, align 4, !tbaa !8
  call void @llvm.lifetime.start.p0(i64 8, ptr %12) #17
  call void @llvm.lifetime.start.p0(i64 8, ptr %13) #17
  call void @llvm.lifetime.start.p0(i64 4, ptr %14) #17
  store i32 0, ptr %14, align 4, !tbaa !8
  %16 = load ptr, ptr %7, align 8, !tbaa !33
  %17 = icmp ne ptr %16, null
  br i1 %17, label %18, label %39

18:                                               ; preds = %4
  br label %19

19:                                               ; preds = %18
  %20 = load ptr, ptr %7, align 8, !tbaa !33
  %21 = load ptr, ptr %6, align 8, !tbaa !24
  %22 = call i32 @ValidateParameters(ptr noundef %20, ptr noundef %21, i32 noundef 0)
  store i32 %22, ptr @paUtilErr_, align 4, !tbaa !8
  %23 = icmp slt i32 %22, 0
  %24 = zext i1 %23 to i32
  %25 = sext i32 %24 to i64
  %26 = call i64 @llvm.expect.i64(i64 %25, i64 0)
  %27 = icmp ne i64 %26, 0
  br i1 %27, label %28, label %30

28:                                               ; preds = %19
  call void (ptr, ...) @PaUtil_DebugPrint(ptr noundef @.str.87)
  %29 = load i32, ptr @paUtilErr_, align 4, !tbaa !8
  store i32 %29, ptr %14, align 4, !tbaa !8
  br label %86

30:                                               ; preds = %19
  br label %31

31:                                               ; preds = %30
  br label %32

32:                                               ; preds = %31
  %33 = load ptr, ptr %7, align 8, !tbaa !33
  %34 = getelementptr inbounds nuw %struct.PaStreamParameters, ptr %33, i32 0, i32 1
  %35 = load i32, ptr %34, align 4, !tbaa !40
  store i32 %35, ptr %10, align 4, !tbaa !8
  %36 = load ptr, ptr %7, align 8, !tbaa !33
  %37 = getelementptr inbounds nuw %struct.PaStreamParameters, ptr %36, i32 0, i32 2
  %38 = load i64, ptr %37, align 8, !tbaa !42
  store i64 %38, ptr %12, align 8, !tbaa !37
  br label %39

39:                                               ; preds = %32, %4
  %40 = load ptr, ptr %8, align 8, !tbaa !33
  %41 = icmp ne ptr %40, null
  br i1 %41, label %42, label %63

42:                                               ; preds = %39
  br label %43

43:                                               ; preds = %42
  %44 = load ptr, ptr %8, align 8, !tbaa !33
  %45 = load ptr, ptr %6, align 8, !tbaa !24
  %46 = call i32 @ValidateParameters(ptr noundef %44, ptr noundef %45, i32 noundef 1)
  store i32 %46, ptr @paUtilErr_, align 4, !tbaa !8
  %47 = icmp slt i32 %46, 0
  %48 = zext i1 %47 to i32
  %49 = sext i32 %48 to i64
  %50 = call i64 @llvm.expect.i64(i64 %49, i64 0)
  %51 = icmp ne i64 %50, 0
  br i1 %51, label %52, label %54

52:                                               ; preds = %43
  call void (ptr, ...) @PaUtil_DebugPrint(ptr noundef @.str.88)
  %53 = load i32, ptr @paUtilErr_, align 4, !tbaa !8
  store i32 %53, ptr %14, align 4, !tbaa !8
  br label %86

54:                                               ; preds = %43
  br label %55

55:                                               ; preds = %54
  br label %56

56:                                               ; preds = %55
  %57 = load ptr, ptr %8, align 8, !tbaa !33
  %58 = getelementptr inbounds nuw %struct.PaStreamParameters, ptr %57, i32 0, i32 1
  %59 = load i32, ptr %58, align 4, !tbaa !40
  store i32 %59, ptr %11, align 4, !tbaa !8
  %60 = load ptr, ptr %8, align 8, !tbaa !33
  %61 = getelementptr inbounds nuw %struct.PaStreamParameters, ptr %60, i32 0, i32 2
  %62 = load i64, ptr %61, align 8, !tbaa !42
  store i64 %62, ptr %13, align 8, !tbaa !37
  br label %63

63:                                               ; preds = %56, %39
  %64 = load i32, ptr %10, align 4, !tbaa !8
  %65 = icmp ne i32 %64, 0
  br i1 %65, label %66, label %74

66:                                               ; preds = %63
  %67 = load ptr, ptr %6, align 8, !tbaa !24
  %68 = load ptr, ptr %7, align 8, !tbaa !33
  %69 = load double, ptr %9, align 8, !tbaa !35
  %70 = call i32 @TestParameters(ptr noundef %67, ptr noundef %68, double noundef %69, i32 noundef 0)
  store i32 %70, ptr %14, align 4, !tbaa !8
  %71 = icmp ne i32 %70, 0
  br i1 %71, label %72, label %73

72:                                               ; preds = %66
  br label %86

73:                                               ; preds = %66
  br label %74

74:                                               ; preds = %73, %63
  %75 = load i32, ptr %11, align 4, !tbaa !8
  %76 = icmp ne i32 %75, 0
  br i1 %76, label %77, label %85

77:                                               ; preds = %74
  %78 = load ptr, ptr %6, align 8, !tbaa !24
  %79 = load ptr, ptr %8, align 8, !tbaa !33
  %80 = load double, ptr %9, align 8, !tbaa !35
  %81 = call i32 @TestParameters(ptr noundef %78, ptr noundef %79, double noundef %80, i32 noundef 1)
  store i32 %81, ptr %14, align 4, !tbaa !8
  %82 = icmp ne i32 %81, 0
  br i1 %82, label %83, label %84

83:                                               ; preds = %77
  br label %86

84:                                               ; preds = %77
  br label %85

85:                                               ; preds = %84, %74
  store i32 0, ptr %5, align 4
  store i32 1, ptr %15, align 4
  br label %88

86:                                               ; preds = %83, %72, %52, %28
  %87 = load i32, ptr %14, align 4, !tbaa !8
  store i32 %87, ptr %5, align 4
  store i32 1, ptr %15, align 4
  br label %88

88:                                               ; preds = %86, %85
  call void @llvm.lifetime.end.p0(i64 4, ptr %14) #17
  call void @llvm.lifetime.end.p0(i64 8, ptr %13) #17
  call void @llvm.lifetime.end.p0(i64 8, ptr %12) #17
  call void @llvm.lifetime.end.p0(i64 4, ptr %11) #17
  call void @llvm.lifetime.end.p0(i64 4, ptr %10) #17
  %89 = load i32, ptr %5, align 4
  ret i32 %89
}