; Function Attrs: nounwind uwtable
define internal i32 @IsFormatSupported(ptr noundef readonly captures(none) %0, ptr noundef readonly captures(address_is_null) %1, ptr noundef readonly captures(address_is_null) %2, double noundef %3) #2 {
  %.not = icmp eq ptr %1, null
  br i1 %.not, label %.thread50, label %5

5:                                                ; preds = %4
  %6 = load i32, ptr %1, align 8, !tbaa !31
  %.not.i = icmp eq i32 %6, -2
  %7 = getelementptr inbounds nuw i8, ptr %1, i64 24
  %8 = load ptr, ptr %7, align 8, !tbaa !34
  br i1 %.not.i, label %18, label %9

9:                                                ; preds = %5
  %.not21.i = icmp eq ptr %8, null
  br i1 %.not21.i, label %10, label %27, !prof !35

10:                                               ; preds = %9
  %11 = getelementptr i8, ptr %0, i64 40
  %.val.i = load ptr, ptr %11, align 8, !tbaa !36
  %12 = sext i32 %6 to i64
  %13 = getelementptr inbounds ptr, ptr %.val.i, i64 %12
  %14 = load ptr, ptr %13, align 8, !tbaa !37
  %.in.i = getelementptr inbounds nuw i8, ptr %14, i64 20
  %15 = load i32, ptr %.in.i, align 4, !tbaa !3
  %16 = getelementptr inbounds nuw i8, ptr %1, i64 4
  %17 = load i32, ptr %16, align 4, !tbaa !39
  %.not22.i = icmp sgt i32 %17, %15
  br i1 %.not22.i, label %27, label %29, !prof !9

18:                                               ; preds = %5
  %19 = load i64, ptr %8, align 8, !tbaa !40
  %20 = icmp eq i64 %19, 32
  br i1 %20, label %21, label %27

21:                                               ; preds = %18
  %22 = getelementptr inbounds nuw i8, ptr %8, i64 16
  %23 = load i64, ptr %22, align 8, !tbaa !42
  %.not26.i = icmp eq i64 %23, 1
  br i1 %.not26.i, label %24, label %27, !prof !35

24:                                               ; preds = %21
  %25 = getelementptr inbounds nuw i8, ptr %8, i64 24
  %26 = load ptr, ptr %25, align 8, !tbaa !43
  %.not20.i = icmp eq ptr %26, null
  br i1 %.not20.i, label %27, label %._crit_edge, !prof !9

._crit_edge:                                      ; preds = %24
  %.phi.trans.insert = getelementptr inbounds nuw i8, ptr %1, i64 4
  %.pre = load i32, ptr %.phi.trans.insert, align 4, !tbaa !39
  br label %29

27:                                               ; preds = %24, %21, %18, %10, %9
  %.str.91.sink.i = phi ptr [ @.str.89, %9 ], [ @.str.91, %18 ], [ @.str.91, %21 ], [ @.str.92, %24 ], [ @.str.93, %10 ]
  %.1.ph.i = phi i32 [ -9993, %9 ], [ -9984, %18 ], [ -9984, %21 ], [ -9996, %24 ], [ -9998, %10 ]
  tail call void (ptr, ...) @PaUtil_DebugPrint(ptr noundef nonnull %.str.91.sink.i) #25
  store i32 %.1.ph.i, ptr @paUtilErr_, align 4, !tbaa !3
  tail call void (ptr, ...) @PaUtil_DebugPrint(ptr noundef nonnull @.str.87) #25
  %28 = load i32, ptr @paUtilErr_, align 4, !tbaa !3
  br label %.thread48

29:                                               ; preds = %._crit_edge, %10
  %30 = phi i32 [ %.pre, %._crit_edge ], [ %17, %10 ]
  store i32 0, ptr @paUtilErr_, align 4, !tbaa !3
  %31 = icmp eq i32 %30, 0
  %.not26 = icmp eq ptr %2, null
  br i1 %.not26, label %.thread, label %32

.thread50:                                        ; preds = %4
  %.not2652 = icmp eq ptr %2, null
  br i1 %.not2652, label %.thread48, label %32

32:                                               ; preds = %.thread50, %29
  %.02053 = phi i1 [ true, %.thread50 ], [ %31, %29 ]
  %33 = load i32, ptr %2, align 8, !tbaa !31
  %.not.i31 = icmp eq i32 %33, -2
  %34 = getelementptr inbounds nuw i8, ptr %2, i64 24
  %35 = load ptr, ptr %34, align 8, !tbaa !34
  br i1 %.not.i31, label %45, label %36

36:                                               ; preds = %32
  %.not21.i32 = icmp eq ptr %35, null
  br i1 %.not21.i32, label %37, label %54, !prof !35

37:                                               ; preds = %36
  %38 = getelementptr i8, ptr %0, i64 40
  %.val.i37 = load ptr, ptr %38, align 8, !tbaa !36
  %39 = sext i32 %33 to i64
  %40 = getelementptr inbounds ptr, ptr %.val.i37, i64 %39
  %41 = load ptr, ptr %40, align 8, !tbaa !37
  %.in.i38 = getelementptr inbounds nuw i8, ptr %41, i64 24
  %42 = load i32, ptr %.in.i38, align 4, !tbaa !3
  %43 = getelementptr inbounds nuw i8, ptr %2, i64 4
  %44 = load i32, ptr %43, align 4, !tbaa !39
  %.not22.i39 = icmp sgt i32 %44, %42
  br i1 %.not22.i39, label %54, label %56, !prof !9

45:                                               ; preds = %32
  %46 = load i64, ptr %35, align 8, !tbaa !40
  %47 = icmp eq i64 %46, 32
  br i1 %47, label %48, label %54

48:                                               ; preds = %45
  %49 = getelementptr inbounds nuw i8, ptr %35, i64 16
  %50 = load i64, ptr %49, align 8, !tbaa !42
  %.not26.i40 = icmp eq i64 %50, 1
  br i1 %.not26.i40, label %51, label %54, !prof !35

51:                                               ; preds = %48
  %52 = getelementptr inbounds nuw i8, ptr %35, i64 24
  %53 = load ptr, ptr %52, align 8, !tbaa !43
  %.not20.i41 = icmp eq ptr %53, null
  br i1 %.not20.i41, label %54, label %._crit_edge56, !prof !9

._crit_edge56:                                    ; preds = %51
  %.phi.trans.insert57 = getelementptr inbounds nuw i8, ptr %2, i64 4
  %.pre58 = load i32, ptr %.phi.trans.insert57, align 4, !tbaa !39
  br label %56

54:                                               ; preds = %51, %48, %45, %37, %36
  %.str.91.sink.i34 = phi ptr [ @.str.89, %36 ], [ @.str.91, %45 ], [ @.str.91, %48 ], [ @.str.92, %51 ], [ @.str.93, %37 ]
  %.1.ph.i35 = phi i32 [ -9993, %36 ], [ -9984, %45 ], [ -9984, %48 ], [ -9996, %51 ], [ -9998, %37 ]
  tail call void (ptr, ...) @PaUtil_DebugPrint(ptr noundef nonnull %.str.91.sink.i34) #25
  store i32 %.1.ph.i35, ptr @paUtilErr_, align 4, !tbaa !3
  tail call void (ptr, ...) @PaUtil_DebugPrint(ptr noundef nonnull @.str.88) #25
  %55 = load i32, ptr @paUtilErr_, align 4, !tbaa !3
  br label %.thread48

56:                                               ; preds = %._crit_edge56, %37
  %57 = phi i32 [ %.pre58, %._crit_edge56 ], [ %44, %37 ]
  store i32 0, ptr @paUtilErr_, align 4, !tbaa !3
  %58 = icmp eq i32 %57, 0
  br i1 %.02053, label %62, label %60

.thread:                                          ; preds = %29
  br i1 %31, label %.thread48, label %.thread59

.thread59:                                        ; preds = %.thread
  %59 = tail call fastcc i32 @TestParameters(ptr noundef %0, ptr noundef nonnull %1, double noundef %3, i32 noundef 0)
  br label %.thread48

60:                                               ; preds = %56
  %61 = tail call fastcc i32 @TestParameters(ptr noundef %0, ptr noundef %1, double noundef %3, i32 noundef 0)
  %.not28 = icmp ne i32 %61, 0
  %brmerge = select i1 %.not28, i1 true, i1 %58
  br i1 %brmerge, label %.thread48, label %63

62:                                               ; preds = %56
  br i1 %58, label %.thread48, label %63

63:                                               ; preds = %60, %62
  %64 = tail call fastcc i32 @TestParameters(ptr noundef %0, ptr noundef nonnull %2, double noundef %3, i32 noundef 1)
  br label %.thread48

.thread48:                                        ; preds = %.thread59, %.thread50, %.thread, %63, %60, %27, %54, %62
  %.019 = phi i32 [ 0, %62 ], [ %28, %27 ], [ %55, %54 ], [ %61, %60 ], [ %64, %63 ], [ 0, %.thread ], [ 0, %.thread50 ], [ %59, %.thread59 ]
  ret i32 %.019
}